target datalayout = "e-m:e-p270:32:32-p271:32:32-p272:64:64-i64:64-i128:128-f80:128-n8:16:32:64-S128"
target triple = "x86_64-pc-linux-gnu"

%struct.H5D_t = type { %struct.H5O_loc_t, %struct.H5G_name_t, ptr }
%struct.H5O_loc_t = type { ptr, i64, i8 }
%struct.H5G_name_t = type { ptr, ptr, i32 }
%struct.H5D_shared_t = type { i64, i8, i64, ptr, ptr, i64, i64, %struct.H5D_dcpl_cache_t, %struct.H5O_layout_t, i8, i32, [32 x i64], [32 x i64], [32 x i64], %struct.anon.6, %struct.H5D_append_flush_t, ptr, ptr }
%struct.H5D_dcpl_cache_t = type { %struct.H5O_fill_t, %struct.H5O_pline_t, %struct.H5O_efl_t }
%struct.H5O_fill_t = type { %struct.H5O_shared_t, i32, ptr, i64, ptr, i32, i32, i8 }
%struct.H5O_shared_t = type { i32, ptr, i32, %union.anon }
%union.anon = type { %struct.H5O_mesg_loc_t }
%struct.H5O_mesg_loc_t = type { i32, i64 }
%struct.H5O_pline_t = type { %struct.H5O_shared_t, i32, i64, i64, ptr }
%struct.H5O_efl_t = type { i64, i64, i64, ptr }
%struct.H5O_layout_t = type { i32, i32, ptr, %union.anon.0, %struct.H5O_storage_t }
%union.anon.0 = type { %struct.H5O_layout_chunk_t }
%struct.H5O_layout_chunk_t = type { i32, i8, i32, [33 x i32], i32, i32, i64, i64, [33 x i64], [33 x i64], [33 x i64], [33 x i64], %union.anon.1 }
%union.anon.1 = type { %struct.H5O_layout_chunk_earray_t }
%struct.H5O_layout_chunk_earray_t = type { %struct.anon.2, i32, [33 x i32], [33 x i64], [33 x i64] }
%struct.anon.2 = type { i8, i8, i8, i8, i8 }
%struct.H5O_storage_t = type { i32, %union.anon.4 }
%union.anon.4 = type { %struct.H5O_storage_virtual_t }
%struct.H5O_storage_virtual_t = type { %struct.H5HG_t, i64, ptr, i64, [32 x i64], i32, i64, i64, i64, i8 }
%struct.H5HG_t = type { i64, i64 }
%struct.anon.6 = type { %struct.H5D_rdcdc_t, %struct.H5D_rdcc_t }
%struct.H5D_rdcdc_t = type { ptr, i64, i64, i64, i8 }
%struct.H5D_rdcc_t = type { %struct.anon.7, i64, i64, double, ptr, ptr, ptr, i64, i32, %struct.H5D_chunk_cached_t, ptr, ptr, ptr, ptr, [32 x i64], [32 x i64], [32 x i32] }
%struct.anon.7 = type { i32, i32, i32, i32 }
%struct.H5D_chunk_cached_t = type { i8, [33 x i64], i64, i32, i64, i32 }
%struct.H5D_append_flush_t = type { i32, [32 x i64], ptr, ptr }
%struct.H5D_chk_idx_info_t = type { ptr, ptr, ptr, ptr }
%struct.H5O_storage_chunk_t = type { i32, i64, ptr, %union.anon.5 }
%union.anon.5 = type { %struct.H5O_storage_chunk_btree_t }
%struct.H5O_storage_chunk_btree_t = type { i64, ptr }
%struct.H5D_chunk_ops_t = type { i8, ptr, ptr, ptr, ptr, ptr, ptr, ptr, ptr, ptr, ptr, ptr, ptr, ptr, ptr, ptr, ptr, ptr, ptr, ptr }
%struct.H5F_block_t = type { i64, i64 }
%struct.H5D_rdcc_ent_t = type { i8, i8, i8, i32, [33 x i64], i32, i32, %struct.H5F_block_t, i64, ptr, i32, ptr, ptr, ptr, ptr }

@H5D_init_g = external global i8, align 1
@H5_libterm_g = external global i8, align 1
@.str.1 = private unnamed_addr constant [102 x i8] c"generated/home/dtcxzyw/WorkSpace/Projects/compilers/llvm-opt-benchmark/bench/hdf5/hdf5/src/H5Dchunk.c\00", align 1
@H5E_DATASET_g = external global i64, align 8
@H5E_CANTGET_g = external global i64, align 8
@H5E_WRITEERROR_g = external global i64, align 8
@H5E_IO_g = external global i64, align 8
@__func__.H5D__chunk_allocated = private unnamed_addr constant [21 x i8] c"H5D__chunk_allocated\00", align 1
@.str.20 = private unnamed_addr constant [36 x i8] c"cannot flush indexed storage buffer\00", align 1
@.str.21 = private unnamed_addr constant [58 x i8] c"unable to retrieve allocated chunk information from index\00", align 1

; Function Attrs: nounwind uwtable
define i32 @H5D__chunk_allocated(ptr noundef %0, ptr noundef %1) #0 {
  %3 = alloca ptr, align 8
  %4 = alloca ptr, align 8
  %5 = alloca %struct.H5D_chk_idx_info_t, align 8
  %6 = alloca ptr, align 8
  %7 = alloca ptr, align 8
  %8 = alloca i64, align 8
  %9 = alloca ptr, align 8
  %10 = alloca i32, align 4
  %11 = alloca i8, align 1
  store ptr %0, ptr %3, align 8, !tbaa !8
  store ptr %1, ptr %4, align 8, !tbaa !152
  call void @llvm.lifetime.start.p0(i64 32, ptr %5) #10
  call void @llvm.lifetime.start.p0(i64 8, ptr %6) #10
  %12 = load ptr, ptr %3, align 8, !tbaa !8
  %13 = getelementptr inbounds nuw %struct.H5D_t, ptr %12, i32 0, i32 2
  %14 = load ptr, ptr %13, align 8, !tbaa !16
  %15 = getelementptr inbounds nuw %struct.H5D_shared_t, ptr %14, i32 0, i32 14
  %16 = getelementptr inbounds nuw %struct.anon.6, ptr %15, i32 0, i32 1
  store ptr %16, ptr %6, align 8, !tbaa !54
  call void @llvm.lifetime.start.p0(i64 8, ptr %7) #10
  call void @llvm.lifetime.start.p0(i64 8, ptr %8) #10
  store i64 0, ptr %8, align 8, !tbaa !24
  call void @llvm.lifetime.start.p0(i64 8, ptr %9) #10
  %17 = load ptr, ptr %3, align 8, !tbaa !8
  %18 = getelementptr inbounds nuw %struct.H5D_t, ptr %17, i32 0, i32 2
  %19 = load ptr, ptr %18, align 8, !tbaa !16
  %20 = getelementptr inbounds nuw %struct.H5D_shared_t, ptr %19, i32 0, i32 8
  %21 = getelementptr inbounds nuw %struct.H5O_layout_t, ptr %20, i32 0, i32 4
  %22 = getelementptr inbounds nuw %struct.H5O_storage_t, ptr %21, i32 0, i32 1
  store ptr %22, ptr %9, align 8, !tbaa !56
  call void @llvm.lifetime.start.p0(i64 4, ptr %10) #10
  store i32 0, ptr %10, align 4, !tbaa !10
  call void @llvm.lifetime.start.p0(i64 1, ptr %11) #10
  store i8 0, ptr %11, align 1, !tbaa !12
  %23 = load i8, ptr @H5D_init_g, align 1, !tbaa !12, !range !14, !noundef !15
  %24 = trunc i8 %23 to i1
  br i1 %24, label %29, label %25

25:                                               ; preds = %2
  %26 = load i8, ptr @H5_libterm_g, align 1, !tbaa !12, !range !14, !noundef !15
  %27 = trunc i8 %26 to i1
  %28 = xor i1 %27, true
  br label %29

29:                                               ; preds = %25, %2
  %30 = phi i1 [ true, %2 ], [ %28, %25 ]
  %31 = xor i1 %30, true
  %32 = xor i1 %31, true
  %33 = zext i1 %32 to i32
  %34 = sext i32 %33 to i64
  %35 = call i64 @llvm.expect.i64(i64 %34, i64 1)
  %36 = icmp ne i64 %35, 0
  br i1 %36, label %37, label %126

37:                                               ; preds = %29
  br label %38

38:                                               ; preds = %37
  br label %39

39:                                               ; preds = %38
  br label %40

40:                                               ; preds = %39
  %41 = load ptr, ptr %6, align 8, !tbaa !54
  %42 = getelementptr inbounds nuw %struct.H5D_rdcc_t, ptr %41, i32 0, i32 4
  %43 = load ptr, ptr %42, align 8, !tbaa !182
  store ptr %43, ptr %7, align 8, !tbaa !183
  br label %44

44:                                               ; preds = %72, %40
  %45 = load ptr, ptr %7, align 8, !tbaa !183
  %46 = icmp ne ptr %45, null
  br i1 %46, label %47, label %76

47:                                               ; preds = %44
  %48 = load ptr, ptr %3, align 8, !tbaa !8
  %49 = load ptr, ptr %7, align 8, !tbaa !183
  %50 = call i32 @H5D__chunk_flush_entry(ptr noundef %48, ptr noundef %49, i1 noundef zeroext false)
  %51 = icmp slt i32 %50, 0
  br i1 %51, label %52, label %71

52:                                               ; preds = %47
  br label %53

53:                                               ; preds = %52
  br label %54

54:                                               ; preds = %53
  br label %55

55:                                               ; preds = %54
  %56 = load i64, ptr @H5E_IO_g, align 8, !tbaa !24
  %57 = load i64, ptr @H5E_WRITEERROR_g, align 8, !tbaa !24
  %58 = call i32 (ptr, ptr, i32, i64, i64, ptr, ...) @H5E_printf_stack(ptr noundef @.str.1, ptr noundef @__func__.H5D__chunk_allocated, i32 noundef 4864, i64 noundef %56, i64 noundef %57, ptr noundef @.str.20)
  br label %59

59:                                               ; preds = %55
  br label %60

60:                                               ; preds = %59
  store i8 1, ptr %11, align 1, !tbaa !12
  %61 = load i8, ptr %11, align 1, !tbaa !12, !range !14, !noundef !15
  %62 = trunc i8 %61 to i1
  %63 = zext i1 %62 to i8
  store i8 %63, ptr %11, align 1, !tbaa !12
  br label %64

64:                                               ; preds = %60
  br label %65

65:                                               ; preds = %64
  br label %66

66:                                               ; preds = %65
  store i32 -1, ptr %10, align 4, !tbaa !10
  br label %125

67:                                               ; No predecessors!
  br label %68

68:                                               ; preds = %67
  br label %69

69:                                               ; preds = %68
  br label %70

70:                                               ; preds = %69
  br label %71

71:                                               ; preds = %70, %47
  br label %72

72:                                               ; preds = %71
  %73 = load ptr, ptr %7, align 8, !tbaa !183
  %74 = getelementptr inbounds nuw %struct.H5D_rdcc_ent_t, ptr %73, i32 0, i32 11
  %75 = load ptr, ptr %74, align 8, !tbaa !184
  store ptr %75, ptr %7, align 8, !tbaa !183
  br label %44, !llvm.loop !256

76:                                               ; preds = %44
  %77 = load ptr, ptr %3, align 8, !tbaa !8
  %78 = getelementptr inbounds nuw %struct.H5D_t, ptr %77, i32 0, i32 0
  %79 = getelementptr inbounds nuw %struct.H5O_loc_t, ptr %78, i32 0, i32 0
  %80 = load ptr, ptr %79, align 8, !tbaa !172
  %81 = getelementptr inbounds nuw %struct.H5D_chk_idx_info_t, ptr %5, i32 0, i32 0
  store ptr %80, ptr %81, align 8, !tbaa !65
  %82 = load ptr, ptr %3, align 8, !tbaa !8
  %83 = getelementptr inbounds nuw %struct.H5D_t, ptr %82, i32 0, i32 2
  %84 = load ptr, ptr %83, align 8, !tbaa !16
  %85 = getelementptr inbounds nuw %struct.H5D_shared_t, ptr %84, i32 0, i32 7
  %86 = getelementptr inbounds nuw %struct.H5D_dcpl_cache_t, ptr %85, i32 0, i32 1
  %87 = getelementptr inbounds nuw %struct.H5D_chk_idx_info_t, ptr %5, i32 0, i32 1
  store ptr %86, ptr %87, align 8, !tbaa !69
  %88 = load ptr, ptr %3, align 8, !tbaa !8
  %89 = getelementptr inbounds nuw %struct.H5D_t, ptr %88, i32 0, i32 2
  %90 = load ptr, ptr %89, align 8, !tbaa !16
  %91 = getelementptr inbounds nuw %struct.H5D_shared_t, ptr %90, i32 0, i32 8
  %92 = getelementptr inbounds nuw %struct.H5O_layout_t, ptr %91, i32 0, i32 3
  %93 = getelementptr inbounds nuw %struct.H5D_chk_idx_info_t, ptr %5, i32 0, i32 2
  store ptr %92, ptr %93, align 8, !tbaa !70
  %94 = load ptr, ptr %9, align 8, !tbaa !56
  %95 = getelementptr inbounds nuw %struct.H5D_chk_idx_info_t, ptr %5, i32 0, i32 3
  store ptr %94, ptr %95, align 8, !tbaa !71
  %96 = load ptr, ptr %9, align 8, !tbaa !56
  %97 = getelementptr inbounds nuw %struct.H5O_storage_chunk_t, ptr %96, i32 0, i32 2
  %98 = load ptr, ptr %97, align 8, !tbaa !72
  %99 = getelementptr inbounds nuw %struct.H5D_chunk_ops_t, ptr %98, i32 0, i32 11
  %100 = load ptr, ptr %99, align 8, !tbaa !257
  %101 = call i32 %100(ptr noundef %5, ptr noundef @H5D__chunk_allocated_cb, ptr noundef %8)
  %102 = icmp slt i32 %101, 0
  br i1 %102, label %103, label %122

103:                                              ; preds = %76
  br label %104

104:                                              ; preds = %103
  br label %105

105:                                              ; preds = %104
  br label %106

106:                                              ; preds = %105
  %107 = load i64, ptr @H5E_DATASET_g, align 8, !tbaa !24
  %108 = load i64, ptr @H5E_CANTGET_g, align 8, !tbaa !24
  %109 = call i32 (ptr, ptr, i32, i64, i64, ptr, ...) @H5E_printf_stack(ptr noundef @.str.1, ptr noundef @__func__.H5D__chunk_allocated, i32 noundef 4875, i64 noundef %107, i64 noundef %108, ptr noundef @.str.21)
  br label %110

110:                                              ; preds = %106
  br label %111

111:                                              ; preds = %110
  store i8 1, ptr %11, align 1, !tbaa !12
  %112 = load i8, ptr %11, align 1, !tbaa !12, !range !14, !noundef !15
  %113 = trunc i8 %112 to i1
  %114 = zext i1 %113 to i8
  store i8 %114, ptr %11, align 1, !tbaa !12
  br label %115

115:                                              ; preds = %111
  br label %116

116:                                              ; preds = %115
  br label %117

117:                                              ; preds = %116
  store i32 -1, ptr %10, align 4, !tbaa !10
  br label %125

118:                                              ; No predecessors!
  br label %119

119:                                              ; preds = %118
  br label %120

120:                                              ; preds = %119
  br label %121

121:                                              ; preds = %120
  br label %122

122:                                              ; preds = %121, %76
  %123 = load i64, ptr %8, align 8, !tbaa !24
  %124 = load ptr, ptr %4, align 8, !tbaa !152
  store i64 %123, ptr %124, align 8, !tbaa !24
  br label %125

125:                                              ; preds = %122, %117, %66
  br label %126

126:                                              ; preds = %125, %29
  %127 = load i32, ptr %10, align 4, !tbaa !10
  call void @llvm.lifetime.end.p0(i64 1, ptr %11) #10
  call void @llvm.lifetime.end.p0(i64 4, ptr %10) #10
  call void @llvm.lifetime.end.p0(i64 8, ptr %9) #10
  call void @llvm.lifetime.end.p0(i64 8, ptr %8) #10
  call void @llvm.lifetime.end.p0(i64 8, ptr %7) #10
  call void @llvm.lifetime.end.p0(i64 8, ptr %6) #10
  call void @llvm.lifetime.end.p0(i64 32, ptr %5) #10
  ret i32 %127
}