; Function Attrs: nounwind uwtable
define range(i32 -1, 1) i32 @H5D__chunk_allocated(ptr noundef %0, ptr noundef writeonly captures(none) %1) local_unnamed_addr #0 {
  %3 = alloca %struct.H5D_chk_idx_info_t, align 8
  %4 = alloca i64, align 8
  call void @llvm.lifetime.start.p0(i64 32, ptr nonnull %3) #15
  %5 = getelementptr inbounds nuw i8, ptr %0, i64 48
  %6 = load ptr, ptr %5, align 8, !tbaa !10
  call void @llvm.lifetime.start.p0(i64 8, ptr nonnull %4) #15
  store i64 0, ptr %4, align 8, !tbaa !21
  %7 = getelementptr inbounds nuw i8, ptr %6, i64 2168
  %8 = load i8, ptr @H5D_init_g, align 1, !tbaa !3, !range !7, !noundef !8
  %9 = trunc nuw i8 %8 to i1
  %10 = load i8, ptr @H5_libterm_g, align 1, !range !7
  %11 = trunc nuw i8 %10 to i1
  %12 = xor i1 %11, true
  %13 = select i1 %9, i1 true, i1 %12
  br i1 %13, label %14, label %43, !prof !9

14:                                               ; preds = %2
  %15 = getelementptr inbounds nuw i8, ptr %6, i64 3360
  %.01516 = load ptr, ptr %15, align 8, !tbaa !193
  %.not17 = icmp eq ptr %.01516, null
  br i1 %.not17, label %._crit_edge, label %.lr.ph

16:                                               ; preds = %.lr.ph
  %17 = getelementptr inbounds nuw i8, ptr %.01518, i64 320
  %.015 = load ptr, ptr %17, align 8, !tbaa !193
  %.not = icmp eq ptr %.015, null
  br i1 %.not, label %._crit_edge.loopexit, label %.lr.ph, !llvm.loop !250

.lr.ph:                                           ; preds = %14, %16
  %.01518 = phi ptr [ %.015, %16 ], [ %.01516, %14 ]
  %18 = tail call fastcc i32 @H5D__chunk_flush_entry(ptr noundef %0, ptr noundef nonnull %.01518, i1 noundef zeroext false)
  %19 = icmp slt i32 %18, 0
  br i1 %19, label %20, label %16

20:                                               ; preds = %.lr.ph
  %21 = load i64, ptr @H5E_IO_g, align 8, !tbaa !21
  %22 = load i64, ptr @H5E_WRITEERROR_g, align 8, !tbaa !21
  %23 = tail call i32 (ptr, ptr, i32, i64, i64, ptr, ...) @H5E_printf_stack(ptr noundef nonnull @.str.1, ptr noundef nonnull @__func__.H5D__chunk_allocated, i32 noundef 4864, i64 noundef %21, i64 noundef %22, ptr noundef nonnull @.str.20) #15
  br label %43

._crit_edge.loopexit:                             ; preds = %16
  %.pre = load ptr, ptr %5, align 8, !tbaa !10
  br label %._crit_edge

._crit_edge:                                      ; preds = %._crit_edge.loopexit, %14
  %24 = phi ptr [ %.pre, %._crit_edge.loopexit ], [ %6, %14 ]
  %25 = load ptr, ptr %0, align 8, !tbaa !186
  store ptr %25, ptr %3, align 8, !tbaa !64
  %26 = getelementptr inbounds nuw i8, ptr %24, i64 144
  %27 = getelementptr inbounds nuw i8, ptr %3, i64 8
  store ptr %26, ptr %27, align 8, !tbaa !69
  %28 = getelementptr inbounds nuw i8, ptr %24, i64 264
  %29 = getelementptr inbounds nuw i8, ptr %3, i64 16
  store ptr %28, ptr %29, align 8, !tbaa !70
  %30 = getelementptr inbounds nuw i8, ptr %3, i64 24
  store ptr %7, ptr %30, align 8, !tbaa !71
  %31 = getelementptr inbounds nuw i8, ptr %6, i64 2184
  %32 = load ptr, ptr %31, align 8, !tbaa !51
  %33 = getelementptr inbounds nuw i8, ptr %32, i64 88
  %34 = load ptr, ptr %33, align 8, !tbaa !251
  %35 = call i32 %34(ptr noundef nonnull %3, ptr noundef nonnull @H5D__chunk_allocated_cb, ptr noundef nonnull %4) #15
  %36 = icmp slt i32 %35, 0
  br i1 %36, label %37, label %41

37:                                               ; preds = %._crit_edge
  %38 = load i64, ptr @H5E_DATASET_g, align 8, !tbaa !21
  %39 = load i64, ptr @H5E_CANTGET_g, align 8, !tbaa !21
  %40 = call i32 (ptr, ptr, i32, i64, i64, ptr, ...) @H5E_printf_stack(ptr noundef nonnull @.str.1, ptr noundef nonnull @__func__.H5D__chunk_allocated, i32 noundef 4875, i64 noundef %38, i64 noundef %39, ptr noundef nonnull @.str.21) #15
  br label %43

41:                                               ; preds = %._crit_edge
  %42 = load i64, ptr %4, align 8, !tbaa !21
  store i64 %42, ptr %1, align 8, !tbaa !21
  br label %43

43:                                               ; preds = %20, %37, %41, %2
  %.0 = phi i32 [ -1, %20 ], [ -1, %37 ], [ 0, %41 ], [ 0, %2 ]
  call void @llvm.lifetime.end.p0(i64 8, ptr nonnull %4) #15
  call void @llvm.lifetime.end.p0(i64 32, ptr nonnull %3) #15
  ret i32 %.0
}